target datalayout = "e-m:e-p270:32:32-p271:32:32-p272:64:64-i64:64-i128:128-f80:128-n8:16:32:64-S128"
target triple = "x86_64-pc-linux-gnu"

%struct.JNINativeInterface_ = type { ptr, ptr, ptr, ptr, ptr, ptr, ptr, ptr, ptr, ptr, ptr, ptr, ptr, ptr, ptr, ptr, ptr, ptr, ptr, ptr, ptr, ptr, ptr, ptr, ptr, ptr, ptr, ptr, ptr, ptr, ptr, ptr, ptr, ptr, ptr, ptr, ptr, ptr, ptr, ptr, ptr, ptr, ptr, ptr, ptr, ptr, ptr, ptr, ptr, ptr, ptr, ptr, ptr, ptr, ptr, ptr, ptr, ptr, ptr, ptr, ptr, ptr, ptr, ptr, ptr, ptr, ptr, ptr, ptr, ptr, ptr, ptr, ptr, ptr, ptr, ptr, ptr, ptr, ptr, ptr, ptr, ptr, ptr, ptr, ptr, ptr, ptr, ptr, ptr, ptr, ptr, ptr, ptr, ptr, ptr, ptr, ptr, ptr, ptr, ptr, ptr, ptr, ptr, ptr, ptr, ptr, ptr, ptr, ptr, ptr, ptr, ptr, ptr, ptr, ptr, ptr, ptr, ptr, ptr, ptr, ptr, ptr, ptr, ptr, ptr, ptr, ptr, ptr, ptr, ptr, ptr, ptr, ptr, ptr, ptr, ptr, ptr, ptr, ptr, ptr, ptr, ptr, ptr, ptr, ptr, ptr, ptr, ptr, ptr, ptr, ptr, ptr, ptr, ptr, ptr, ptr, ptr, ptr, ptr, ptr, ptr, ptr, ptr, ptr, ptr, ptr, ptr, ptr, ptr, ptr, ptr, ptr, ptr, ptr, ptr, ptr, ptr, ptr, ptr, ptr, ptr, ptr, ptr, ptr, ptr, ptr, ptr, ptr, ptr, ptr, ptr, ptr, ptr, ptr, ptr, ptr, ptr, ptr, ptr, ptr, ptr, ptr, ptr, ptr, ptr, ptr, ptr, ptr, ptr, ptr, ptr, ptr, ptr, ptr, ptr, ptr, ptr, ptr, ptr, ptr, ptr, ptr, ptr, ptr, ptr, ptr, ptr, ptr, ptr, ptr, ptr, ptr, ptr, ptr, ptr }
%struct.CK_MECHANISM = type { i64, ptr, i64 }
%struct.CK_PBE_PARAMS = type { ptr, ptr, i64, ptr, i64, i64 }

@.str.13 = private unnamed_addr constant [3 x i8] c"[C\00", align 1
@.str.17 = private unnamed_addr constant [2 x i8] c"J\00", align 1
@.str.19 = private unnamed_addr constant [19 x i8] c"Ljava/lang/Object;\00", align 1
@.str.69 = private unnamed_addr constant [42 x i8] c"sun/security/pkcs11/wrapper/CK_PBE_PARAMS\00", align 1
@.str.74 = private unnamed_addr constant [41 x i8] c"sun/security/pkcs11/wrapper/CK_MECHANISM\00", align 1
@.str.75 = private unnamed_addr constant [10 x i8] c"mechanism\00", align 1
@.str.76 = private unnamed_addr constant [11 x i8] c"pParameter\00", align 1
@.str.77 = private unnamed_addr constant [12 x i8] c"pInitVektor\00", align 1

; Function Attrs: nounwind uwtable
define hidden void @copyBackPBEInitializationVector(ptr noundef %0, ptr noundef %1, ptr noundef %2) #0 {
  %4 = alloca ptr, align 8
  %5 = alloca ptr, align 8
  %6 = alloca ptr, align 8
  %7 = alloca ptr, align 8
  %8 = alloca ptr, align 8
  %9 = alloca ptr, align 8
  %10 = alloca ptr, align 8
  %11 = alloca i64, align 8
  %12 = alloca i64, align 8
  %13 = alloca ptr, align 8
  %14 = alloca ptr, align 8
  %15 = alloca i32, align 4
  %16 = alloca ptr, align 8
  %17 = alloca i32, align 4
  %18 = alloca ptr, align 8
  store ptr %0, ptr %4, align 8
  store ptr %1, ptr %5, align 8
  store ptr %2, ptr %6, align 8
  %19 = load ptr, ptr %4, align 8
  %20 = load ptr, ptr %19, align 8
  %21 = getelementptr inbounds %struct.JNINativeInterface_, ptr %20, i32 0, i32 6
  %22 = load ptr, ptr %21, align 8
  %23 = load ptr, ptr %4, align 8
  %24 = call ptr %22(ptr noundef %23, ptr noundef @.str.74)
  store ptr %24, ptr %7, align 8
  %25 = load ptr, ptr %7, align 8
  %26 = icmp eq ptr %25, null
  br i1 %26, label %27, label %28

27:                                               ; preds = %3
  br label %165

28:                                               ; preds = %3
  %29 = load ptr, ptr %4, align 8
  %30 = load ptr, ptr %29, align 8
  %31 = getelementptr inbounds %struct.JNINativeInterface_, ptr %30, i32 0, i32 94
  %32 = load ptr, ptr %31, align 8
  %33 = load ptr, ptr %4, align 8
  %34 = load ptr, ptr %7, align 8
  %35 = call ptr %32(ptr noundef %33, ptr noundef %34, ptr noundef @.str.75, ptr noundef @.str.17)
  store ptr %35, ptr %10, align 8
  %36 = load ptr, ptr %10, align 8
  %37 = icmp eq ptr %36, null
  br i1 %37, label %38, label %39

38:                                               ; preds = %28
  br label %165

39:                                               ; preds = %28
  %40 = load ptr, ptr %4, align 8
  %41 = load ptr, ptr %40, align 8
  %42 = getelementptr inbounds %struct.JNINativeInterface_, ptr %41, i32 0, i32 101
  %43 = load ptr, ptr %42, align 8
  %44 = load ptr, ptr %4, align 8
  %45 = load ptr, ptr %6, align 8
  %46 = load ptr, ptr %10, align 8
  %47 = call i64 %43(ptr noundef %44, ptr noundef %45, ptr noundef %46)
  store i64 %47, ptr %12, align 8
  %48 = load i64, ptr %12, align 8
  store i64 %48, ptr %11, align 8
  %49 = load i64, ptr %11, align 8
  %50 = load ptr, ptr %5, align 8
  %51 = getelementptr inbounds %struct.CK_MECHANISM, ptr %50, i32 0, i32 0
  %52 = load i64, ptr %51, align 8
  %53 = icmp ne i64 %49, %52
  br i1 %53, label %54, label %55

54:                                               ; preds = %39
  br label %165

55:                                               ; preds = %39
  %56 = load ptr, ptr %4, align 8
  %57 = load ptr, ptr %56, align 8
  %58 = getelementptr inbounds %struct.JNINativeInterface_, ptr %57, i32 0, i32 6
  %59 = load ptr, ptr %58, align 8
  %60 = load ptr, ptr %4, align 8
  %61 = call ptr %59(ptr noundef %60, ptr noundef @.str.69)
  store ptr %61, ptr %8, align 8
  %62 = load ptr, ptr %8, align 8
  %63 = icmp eq ptr %62, null
  br i1 %63, label %64, label %65

64:                                               ; preds = %55
  br label %165

65:                                               ; preds = %55
  %66 = load ptr, ptr %5, align 8
  %67 = getelementptr inbounds %struct.CK_MECHANISM, ptr %66, i32 0, i32 1
  %68 = load ptr, ptr %67, align 8
  store ptr %68, ptr %9, align 8
  %69 = load ptr, ptr %9, align 8
  %70 = icmp ne ptr %69, null
  br i1 %70, label %71, label %165

71:                                               ; preds = %65
  %72 = load ptr, ptr %9, align 8
  %73 = getelementptr inbounds %struct.CK_PBE_PARAMS, ptr %72, i32 0, i32 0
  %74 = load ptr, ptr %73, align 8
  store ptr %74, ptr %16, align 8
  %75 = load ptr, ptr %16, align 8
  %76 = icmp ne ptr %75, null
  br i1 %76, label %77, label %164

77:                                               ; preds = %71
  %78 = load ptr, ptr %4, align 8
  %79 = load ptr, ptr %78, align 8
  %80 = getelementptr inbounds %struct.JNINativeInterface_, ptr %79, i32 0, i32 94
  %81 = load ptr, ptr %80, align 8
  %82 = load ptr, ptr %4, align 8
  %83 = load ptr, ptr %7, align 8
  %84 = call ptr %81(ptr noundef %82, ptr noundef %83, ptr noundef @.str.76, ptr noundef @.str.19)
  store ptr %84, ptr %10, align 8
  %85 = load ptr, ptr %10, align 8
  %86 = icmp eq ptr %85, null
  br i1 %86, label %87, label %88

87:                                               ; preds = %77
  br label %165

88:                                               ; preds = %77
  %89 = load ptr, ptr %4, align 8
  %90 = load ptr, ptr %89, align 8
  %91 = getelementptr inbounds %struct.JNINativeInterface_, ptr %90, i32 0, i32 95
  %92 = load ptr, ptr %91, align 8
  %93 = load ptr, ptr %4, align 8
  %94 = load ptr, ptr %6, align 8
  %95 = load ptr, ptr %10, align 8
  %96 = call ptr %92(ptr noundef %93, ptr noundef %94, ptr noundef %95)
  store ptr %96, ptr %13, align 8
  %97 = load ptr, ptr %4, align 8
  %98 = load ptr, ptr %97, align 8
  %99 = getelementptr inbounds %struct.JNINativeInterface_, ptr %98, i32 0, i32 94
  %100 = load ptr, ptr %99, align 8
  %101 = load ptr, ptr %4, align 8
  %102 = load ptr, ptr %8, align 8
  %103 = call ptr %100(ptr noundef %101, ptr noundef %102, ptr noundef @.str.77, ptr noundef @.str.13)
  store ptr %103, ptr %10, align 8
  %104 = load ptr, ptr %10, align 8
  %105 = icmp eq ptr %104, null
  br i1 %105, label %106, label %107

106:                                              ; preds = %88
  br label %165

107:                                              ; preds = %88
  %108 = load ptr, ptr %4, align 8
  %109 = load ptr, ptr %108, align 8
  %110 = getelementptr inbounds %struct.JNINativeInterface_, ptr %109, i32 0, i32 95
  %111 = load ptr, ptr %110, align 8
  %112 = load ptr, ptr %4, align 8
  %113 = load ptr, ptr %13, align 8
  %114 = load ptr, ptr %10, align 8
  %115 = call ptr %111(ptr noundef %112, ptr noundef %113, ptr noundef %114)
  store ptr %115, ptr %14, align 8
  %116 = load ptr, ptr %14, align 8
  %117 = icmp ne ptr %116, null
  br i1 %117, label %118, label %163

118:                                              ; preds = %107
  %119 = load ptr, ptr %4, align 8
  %120 = load ptr, ptr %119, align 8
  %121 = getelementptr inbounds %struct.JNINativeInterface_, ptr %120, i32 0, i32 171
  %122 = load ptr, ptr %121, align 8
  %123 = load ptr, ptr %4, align 8
  %124 = load ptr, ptr %14, align 8
  %125 = call i32 %122(ptr noundef %123, ptr noundef %124)
  store i32 %125, ptr %15, align 4
  %126 = load ptr, ptr %4, align 8
  %127 = load ptr, ptr %126, align 8
  %128 = getelementptr inbounds %struct.JNINativeInterface_, ptr %127, i32 0, i32 185
  %129 = load ptr, ptr %128, align 8
  %130 = load ptr, ptr %4, align 8
  %131 = load ptr, ptr %14, align 8
  %132 = call ptr %129(ptr noundef %130, ptr noundef %131, ptr noundef null)
  store ptr %132, ptr %18, align 8
  %133 = load ptr, ptr %18, align 8
  %134 = icmp eq ptr %133, null
  br i1 %134, label %135, label %136

135:                                              ; preds = %118
  br label %165

136:                                              ; preds = %118
  store i32 0, ptr %17, align 4
  br label %137

137:                                              ; preds = %152, %136
  %138 = load i32, ptr %17, align 4
  %139 = load i32, ptr %15, align 4
  %140 = icmp slt i32 %138, %139
  br i1 %140, label %141, label %155

141:                                              ; preds = %137
  %142 = load ptr, ptr %16, align 8
  %143 = load i32, ptr %17, align 4
  %144 = sext i32 %143 to i64
  %145 = getelementptr inbounds i8, ptr %142, i64 %144
  %146 = load i8, ptr %145, align 1
  %147 = zext i8 %146 to i16
  %148 = load ptr, ptr %18, align 8
  %149 = load i32, ptr %17, align 4
  %150 = sext i32 %149 to i64
  %151 = getelementptr inbounds i16, ptr %148, i64 %150
  store i16 %147, ptr %151, align 2
  br label %152

152:                                              ; preds = %141
  %153 = load i32, ptr %17, align 4
  %154 = add nsw i32 %153, 1
  store i32 %154, ptr %17, align 4
  br label %137, !llvm.loop !10

155:                                              ; preds = %137
  %156 = load ptr, ptr %4, align 8
  %157 = load ptr, ptr %156, align 8
  %158 = getelementptr inbounds %struct.JNINativeInterface_, ptr %157, i32 0, i32 193
  %159 = load ptr, ptr %158, align 8
  %160 = load ptr, ptr %4, align 8
  %161 = load ptr, ptr %14, align 8
  %162 = load ptr, ptr %18, align 8
  call void %159(ptr noundef %160, ptr noundef %161, ptr noundef %162, i32 noundef 0)
  br label %163

163:                                              ; preds = %155, %107
  br label %164

164:                                              ; preds = %163, %71
  br label %165

165:                                              ; preds = %164, %135, %106, %87, %65, %64, %54, %38, %27
  ret void
}