; Function Attrs: nounwind uwtable
define hidden void @copyBackPBEInitializationVector(ptr noundef %0, ptr nocapture noundef readonly %1, ptr noundef %2) local_unnamed_addr #0 {
  %4 = load ptr, ptr %0, align 8
  %5 = getelementptr inbounds i8, ptr %4, i64 48
  %6 = load ptr, ptr %5, align 8
  %7 = tail call ptr %6(ptr noundef nonnull %0, ptr noundef nonnull @.str.74) #8
  %8 = icmp eq ptr %7, null
  br i1 %8, label %71, label %9

9:                                                ; preds = %3
  %10 = load ptr, ptr %0, align 8
  %11 = getelementptr inbounds i8, ptr %10, i64 752
  %12 = load ptr, ptr %11, align 8
  %13 = tail call ptr %12(ptr noundef nonnull %0, ptr noundef nonnull %7, ptr noundef nonnull @.str.75, ptr noundef nonnull @.str.17) #8
  %14 = icmp eq ptr %13, null
  br i1 %14, label %71, label %15

15:                                               ; preds = %9
  %16 = load ptr, ptr %0, align 8
  %17 = getelementptr inbounds i8, ptr %16, i64 808
  %18 = load ptr, ptr %17, align 8
  %19 = tail call i64 %18(ptr noundef nonnull %0, ptr noundef %2, ptr noundef nonnull %13) #8
  %20 = load i64, ptr %1, align 8
  %.not = icmp eq i64 %19, %20
  br i1 %.not, label %21, label %71

21:                                               ; preds = %15
  %22 = load ptr, ptr %0, align 8
  %23 = getelementptr inbounds i8, ptr %22, i64 48
  %24 = load ptr, ptr %23, align 8
  %25 = tail call ptr %24(ptr noundef nonnull %0, ptr noundef nonnull @.str.69) #8
  %26 = icmp eq ptr %25, null
  br i1 %26, label %71, label %27

27:                                               ; preds = %21
  %28 = getelementptr inbounds i8, ptr %1, i64 8
  %29 = load ptr, ptr %28, align 8
  %.not64 = icmp eq ptr %29, null
  br i1 %.not64, label %71, label %30

30:                                               ; preds = %27
  %31 = load ptr, ptr %29, align 8
  %.not65 = icmp eq ptr %31, null
  br i1 %.not65, label %71, label %32

32:                                               ; preds = %30
  %33 = load ptr, ptr %0, align 8
  %34 = getelementptr inbounds i8, ptr %33, i64 752
  %35 = load ptr, ptr %34, align 8
  %36 = tail call ptr %35(ptr noundef nonnull %0, ptr noundef nonnull %7, ptr noundef nonnull @.str.76, ptr noundef nonnull @.str.19) #8
  %37 = icmp eq ptr %36, null
  br i1 %37, label %71, label %38

38:                                               ; preds = %32
  %39 = load ptr, ptr %0, align 8
  %40 = getelementptr inbounds i8, ptr %39, i64 760
  %41 = load ptr, ptr %40, align 8
  %42 = tail call ptr %41(ptr noundef nonnull %0, ptr noundef %2, ptr noundef nonnull %36) #8
  %43 = load ptr, ptr %0, align 8
  %44 = getelementptr inbounds i8, ptr %43, i64 752
  %45 = load ptr, ptr %44, align 8
  %46 = tail call ptr %45(ptr noundef nonnull %0, ptr noundef nonnull %25, ptr noundef nonnull @.str.77, ptr noundef nonnull @.str.13) #8
  %47 = icmp eq ptr %46, null
  br i1 %47, label %71, label %48

48:                                               ; preds = %38
  %49 = load ptr, ptr %0, align 8
  %50 = getelementptr inbounds i8, ptr %49, i64 760
  %51 = load ptr, ptr %50, align 8
  %52 = tail call ptr %51(ptr noundef nonnull %0, ptr noundef %42, ptr noundef nonnull %46) #8
  %.not66 = icmp eq ptr %52, null
  br i1 %.not66, label %71, label %53

53:                                               ; preds = %48
  %54 = load ptr, ptr %0, align 8
  %55 = getelementptr inbounds i8, ptr %54, i64 1368
  %56 = load ptr, ptr %55, align 8
  %57 = tail call i32 %56(ptr noundef nonnull %0, ptr noundef nonnull %52) #8
  %58 = load ptr, ptr %0, align 8
  %59 = getelementptr inbounds i8, ptr %58, i64 1480
  %60 = load ptr, ptr %59, align 8
  %61 = tail call ptr %60(ptr noundef nonnull %0, ptr noundef nonnull %52, ptr noundef null) #8
  %62 = icmp eq ptr %61, null
  br i1 %62, label %71, label %.preheader

.preheader:                                       ; preds = %53
  %63 = icmp sgt i32 %57, 0
  br i1 %63, label %.lr.ph.preheader, label %._crit_edge

.lr.ph.preheader:                                 ; preds = %.preheader
  %wide.trip.count = zext nneg i32 %57 to i64
  br label %.lr.ph

.lr.ph:                                           ; preds = %.lr.ph.preheader, %.lr.ph
  %indvars.iv = phi i64 [ 0, %.lr.ph.preheader ], [ %indvars.iv.next, %.lr.ph ]
  %64 = getelementptr inbounds i8, ptr %31, i64 %indvars.iv
  %65 = load i8, ptr %64, align 1
  %66 = zext i8 %65 to i16
  %67 = getelementptr inbounds i16, ptr %61, i64 %indvars.iv
  store i16 %66, ptr %67, align 2
  %indvars.iv.next = add nuw nsw i64 %indvars.iv, 1
  %exitcond.not = icmp eq i64 %indvars.iv.next, %wide.trip.count
  br i1 %exitcond.not, label %._crit_edge, label %.lr.ph, !llvm.loop !10

._crit_edge:                                      ; preds = %.lr.ph, %.preheader
  %68 = load ptr, ptr %0, align 8
  %69 = getelementptr inbounds i8, ptr %68, i64 1544
  %70 = load ptr, ptr %69, align 8
  tail call void %70(ptr noundef nonnull %0, ptr noundef nonnull %52, ptr noundef nonnull %61, i32 noundef 0) #8
  br label %71

71:                                               ; preds = %30, %._crit_edge, %48, %53, %38, %32, %21, %15, %9, %3, %27
  ret void
}